; Function Attrs: nounwind uwtable
define ptr @Gia_ManUpdateExtraAig(ptr noundef %0, ptr noundef %1, ptr noundef readonly captures(none) %2) local_unnamed_addr #0 {
  %4 = tail call noalias dereferenceable_or_null(16) ptr @malloc(i64 noundef 16) #22
  %5 = getelementptr inbounds nuw i8, ptr %4, i64 4
  store i32 0, ptr %5, align 4, !tbaa !29
  store i32 100, ptr %4, align 8, !tbaa !55
  %6 = tail call noalias dereferenceable_or_null(400) ptr @malloc(i64 noundef 400) #22
  %7 = getelementptr inbounds nuw i8, ptr %4, i64 8
  store ptr %6, ptr %7, align 8, !tbaa !32
  %8 = tail call i32 @Tim_ManBoxNum(ptr noundef %0) #20
  %9 = icmp sgt i32 %8, 0
  br i1 %9, label %.preheader.lr.ph, label %._crit_edge21

.preheader.lr.ph:                                 ; preds = %3
  %10 = getelementptr i8, ptr %2, i64 8
  br label %.preheader

.preheader:                                       ; preds = %.preheader.lr.ph, %._crit_edge
  %.pre.i23 = phi ptr [ %6, %.preheader.lr.ph ], [ %.pre.i24, %._crit_edge ]
  %indvars.iv = phi i64 [ 0, %.preheader.lr.ph ], [ %indvars.iv.next, %._crit_edge ]
  %11 = trunc nuw nsw i64 %indvars.iv to i32
  %12 = tail call i32 @Tim_ManBoxOutputNum(ptr noundef %0, i32 noundef %11) #20
  %13 = icmp sgt i32 %12, 0
  br i1 %13, label %.lr.ph, label %._crit_edge

.lr.ph:                                           ; preds = %.preheader, %Vec_IntPush.exit
  %14 = phi ptr [ %.pre.i26, %Vec_IntPush.exit ], [ %.pre.i23, %.preheader ]
  %.01719 = phi i32 [ %39, %Vec_IntPush.exit ], [ 0, %.preheader ]
  %.val = load ptr, ptr %10, align 8, !tbaa !32
  %15 = getelementptr inbounds nuw i32, ptr %.val, i64 %indvars.iv
  %16 = load i32, ptr %15, align 4, !tbaa !33
  %17 = load i32, ptr %5, align 4, !tbaa !29
  %18 = load i32, ptr %4, align 8, !tbaa !55
  %19 = icmp eq i32 %17, %18
  br i1 %19, label %20, label %Vec_IntPush.exit

20:                                               ; preds = %.lr.ph
  %21 = icmp slt i32 %17, 16
  br i1 %21, label %22, label %27

22:                                               ; preds = %20
  %.not9.i.i = icmp eq ptr %14, null
  br i1 %.not9.i.i, label %25, label %23

23:                                               ; preds = %22
  %24 = tail call dereferenceable_or_null(64) ptr @realloc(ptr noundef nonnull %14, i64 noundef 64) #23
  br label %Vec_IntPush.exit.sink.split

25:                                               ; preds = %22
  %26 = tail call noalias dereferenceable_or_null(64) ptr @malloc(i64 noundef 64) #22
  br label %Vec_IntPush.exit.sink.split

27:                                               ; preds = %20
  %28 = shl nuw nsw i32 %17, 1
  %.not9.i9.i = icmp eq ptr %14, null
  %29 = zext nneg i32 %28 to i64
  %30 = shl nuw nsw i64 %29, 2
  br i1 %.not9.i9.i, label %33, label %31

31:                                               ; preds = %27
  %32 = tail call ptr @realloc(ptr noundef nonnull %14, i64 noundef %30) #23
  br label %Vec_IntPush.exit.sink.split

33:                                               ; preds = %27
  %34 = tail call noalias ptr @malloc(i64 noundef %30) #22
  br label %Vec_IntPush.exit.sink.split

Vec_IntPush.exit.sink.split:                      ; preds = %31, %33, %23, %25
  %.sink27 = phi ptr [ %24, %23 ], [ %26, %25 ], [ %32, %31 ], [ %34, %33 ]
  %.sink = phi i32 [ 16, %23 ], [ 16, %25 ], [ %28, %31 ], [ %28, %33 ]
  store ptr %.sink27, ptr %7, align 8, !tbaa !32
  store i32 %.sink, ptr %4, align 8, !tbaa !55
  br label %Vec_IntPush.exit

Vec_IntPush.exit:                                 ; preds = %Vec_IntPush.exit.sink.split, %.lr.ph
  %.pre.i26 = phi ptr [ %14, %.lr.ph ], [ %.sink27, %Vec_IntPush.exit.sink.split ]
  %35 = load i32, ptr %5, align 4, !tbaa !29
  %36 = add nsw i32 %35, 1
  store i32 %36, ptr %5, align 4, !tbaa !29
  %37 = sext i32 %35 to i64
  %38 = getelementptr inbounds i32, ptr %.pre.i26, i64 %37
  store i32 %16, ptr %38, align 4, !tbaa !33
  %39 = add nuw nsw i32 %.01719, 1
  %40 = tail call i32 @Tim_ManBoxOutputNum(ptr noundef %0, i32 noundef %11) #20
  %41 = icmp slt i32 %39, %40
  br i1 %41, label %.lr.ph, label %._crit_edge, !llvm.loop !96

._crit_edge:                                      ; preds = %Vec_IntPush.exit, %.preheader
  %.pre.i24 = phi ptr [ %.pre.i23, %.preheader ], [ %.pre.i26, %Vec_IntPush.exit ]
  %42 = tail call i32 @Tim_ManBoxOutputNum(ptr noundef %0, i32 noundef %11) #20
  %indvars.iv.next = add nuw nsw i64 %indvars.iv, 1
  %43 = tail call i32 @Tim_ManBoxNum(ptr noundef %0) #20
  %44 = sext i32 %43 to i64
  %45 = icmp slt i64 %indvars.iv.next, %44
  br i1 %45, label %.preheader, label %._crit_edge21, !llvm.loop !97

._crit_edge21:                                    ; preds = %._crit_edge, %3
  %46 = tail call ptr @Gia_ManDupOutputVec(ptr noundef %1, ptr noundef nonnull %4) #20
  %47 = load ptr, ptr %7, align 8, !tbaa !32
  %.not.i = icmp eq ptr %47, null
  br i1 %.not.i, label %Vec_IntFree.exit, label %48

48:                                               ; preds = %._crit_edge21
  tail call void @free(ptr noundef nonnull %47) #20
  br label %Vec_IntFree.exit

Vec_IntFree.exit:                                 ; preds = %._crit_edge21, %48
  tail call void @free(ptr noundef nonnull %4) #20
  ret ptr %46
}